target datalayout = "e-m:e-p270:32:32-p271:32:32-p272:64:64-i64:64-i128:128-f80:128-n8:16:32:64-S128"
target triple = "x86_64-pc-linux-gnu"

; Function Attrs: inlinehint nounwind uwtable
define internal i64 @lzma_outq_outbuf_memusage(i64 noundef %0) #2 {
  %2 = alloca i64, align 8
  store i64 %0, ptr %2, align 8, !tbaa !4
  %3 = load i64, ptr %2, align 8, !tbaa !4
  %4 = add i64 64, %3
  ret i64 %4
}

; Function Attrs: nounwind uwtable
define dso_local i64 @lzma_outq_memusage(i64 noundef %0, i32 noundef %1) #0 {
  %3 = alloca i64, align 8
  %4 = alloca i64, align 8
  %5 = alloca i32, align 4
  %6 = alloca i64, align 8
  %7 = alloca i32, align 4
  store i64 %0, ptr %4, align 8, !tbaa !4
  store i32 %1, ptr %5, align 4, !tbaa !8
  call void @llvm.lifetime.start.p0(i64 8, ptr %6) #4
  store i64 281474976710655, ptr %6, align 8, !tbaa !4
  %8 = load i32, ptr %5, align 4, !tbaa !8
  %9 = icmp ugt i32 %8, 16384
  br i1 %9, label %13, label %10

10:                                               ; preds = %2
  %11 = load i64, ptr %4, align 8, !tbaa !4
  %12 = icmp ugt i64 %11, 281474976710655
  br i1 %12, label %13, label %14

13:                                               ; preds = %10, %2
  store i64 -1, ptr %3, align 8
  store i32 1, ptr %7, align 4
  br label %21

14:                                               ; preds = %10
  %15 = load i32, ptr %5, align 4, !tbaa !8
  %16 = mul i32 2, %15
  %17 = zext i32 %16 to i64
  %18 = load i64, ptr %4, align 8, !tbaa !4
  %19 = call i64 @lzma_outq_outbuf_memusage(i64 noundef %18)
  %20 = mul i64 %17, %19
  store i64 %20, ptr %3, align 8
  store i32 1, ptr %7, align 4
  br label %21

21:                                               ; preds = %14, %13
  call void @llvm.lifetime.end.p0(i64 8, ptr %6) #4
  %22 = load i64, ptr %3, align 8
  ret i64 %22
}