; Function Attrs: mustprogress nofree norecurse nosync nounwind willreturn memory(none) uwtable
define dso_local range(i64 -1, -9223372036852711423) i64 @lzma_outq_memusage(i64 noundef %0, i32 noundef %1) local_unnamed_addr #0 {
  %3 = icmp ugt i32 %1, 16384
  %4 = icmp ugt i64 %0, 281474976710655
  %or.cond = or i1 %4, %3
  %5 = shl nuw nsw i32 %1, 1
  %6 = zext nneg i32 %5 to i64
  %7 = add nuw nsw i64 %0, 64
  %8 = mul nuw i64 %7, %6
  %.0 = select i1 %or.cond, i64 -1, i64 %8
  ret i64 %.0
}